target datalayout = "e-m:e-p270:32:32-p271:32:32-p272:64:64-i64:64-i128:128-f80:128-n8:16:32:64-S128"
target triple = "x86_64-unknown-linux-gnu"

%"class.icu_75::UObject" = type { ptr }
%"class.icu_75::TZGNCore" = type <{ ptr, %"class.icu_75::Locale", ptr, ptr, ptr, %"class.icu_75::SimpleFormatter", %"class.icu_75::SimpleFormatter", ptr, %"class.icu_75::ZNStringPool", %"class.icu_75::TextTrieMap", i8, [4 x i8], [3 x i8] }>
%"class.icu_75::Locale" = type <{ %"class.icu_75::UObject", [12 x i8], [6 x i8], [4 x i8], [2 x i8], i32, [4 x i8], ptr, [157 x i8], [3 x i8], ptr, i8, [7 x i8] }>
%"class.icu_75::SimpleFormatter" = type { [8 x i8], %"class.icu_75::UnicodeString" }
%"class.icu_75::UnicodeString" = type { %"class.icu_75::Replaceable", %"union.icu_75::UnicodeString::StackBufferOrFields" }
%"class.icu_75::Replaceable" = type { %"class.icu_75::UObject" }
%"union.icu_75::UnicodeString::StackBufferOrFields" = type { %struct.anon.0, [32 x i8] }
%struct.anon.0 = type { i16, i32, i32, ptr }
%"class.icu_75::ZNStringPool" = type { ptr, ptr }
%"class.icu_75::TextTrieMap" = type { ptr, i8, ptr, i32, i32, ptr, i8, ptr }

@_ZTVN6icu_758TZGNCoreE = unnamed_addr constant { [4 x ptr] } { [4 x ptr] [ptr null, ptr @_ZTIN6icu_758TZGNCoreE, ptr @_ZN6icu_758TZGNCoreD1Ev, ptr @_ZN6icu_758TZGNCoreD0Ev] }, align 8

; Function Attrs: mustprogress uwtable
define linkonce_odr void @_ZN6icu_7515SimpleFormatterC2Ev(ptr noundef nonnull align 8 dereferenceable(72) %this) unnamed_addr #1 comdat align 2 {
entry:
  %this.addr = alloca ptr, align 8
  store ptr %this, ptr %this.addr, align 8
  %this1 = load ptr, ptr %this.addr, align 8
  %compiledPattern = getelementptr inbounds %"class.icu_75::SimpleFormatter", ptr %this1, i32 0, i32 1
  call void @_ZN6icu_7513UnicodeStringC1EDs(ptr noundef nonnull align 8 dereferenceable(64) %compiledPattern, i16 noundef zeroext 0)
  ret void
}

; Function Attrs: mustprogress uwtable
define void @_ZN6icu_758TZGNCoreC2ERKNS_6LocaleER10UErrorCode(ptr noundef nonnull align 8 dereferenceable(485) %this, ptr noundef nonnull align 8 dereferenceable(217) %locale, ptr noundef nonnull align 4 dereferenceable(4) %status) unnamed_addr #1 align 2 personality ptr @__gxx_personality_v0 {
entry:
  %this.addr = alloca ptr, align 8
  %locale.addr = alloca ptr, align 8
  %status.addr = alloca ptr, align 8
  %exn.slot = alloca ptr, align 8
  %ehselector.slot = alloca i32, align 4
  store ptr %this, ptr %this.addr, align 8
  store ptr %locale, ptr %locale.addr, align 8
  store ptr %status, ptr %status.addr, align 8
  %this1 = load ptr, ptr %this.addr, align 8
  store ptr getelementptr inbounds ({ [4 x ptr] }, ptr @_ZTVN6icu_758TZGNCoreE, i32 0, i32 0, i32 2), ptr %this1, align 8
  %fLocale = getelementptr inbounds %"class.icu_75::TZGNCore", ptr %this1, i32 0, i32 1
  %0 = load ptr, ptr %locale.addr, align 8
  call void @_ZN6icu_756LocaleC1ERKS0_(ptr noundef nonnull align 8 dereferenceable(217) %fLocale, ptr noundef nonnull align 8 dereferenceable(217) %0)
  %fTimeZoneNames = getelementptr inbounds %"class.icu_75::TZGNCore", ptr %this1, i32 0, i32 2
  store ptr null, ptr %fTimeZoneNames, align 8
  %fLocationNamesMap = getelementptr inbounds %"class.icu_75::TZGNCore", ptr %this1, i32 0, i32 3
  store ptr null, ptr %fLocationNamesMap, align 8
  %fPartialLocationNamesMap = getelementptr inbounds %"class.icu_75::TZGNCore", ptr %this1, i32 0, i32 4
  store ptr null, ptr %fPartialLocationNamesMap, align 8
  %fRegionFormat = getelementptr inbounds %"class.icu_75::TZGNCore", ptr %this1, i32 0, i32 5
  invoke void @_ZN6icu_7515SimpleFormatterC2Ev(ptr noundef nonnull align 8 dereferenceable(72) %fRegionFormat)
          to label %invoke.cont unwind label %lpad

invoke.cont:                                      ; preds = %entry
  %fFallbackFormat = getelementptr inbounds %"class.icu_75::TZGNCore", ptr %this1, i32 0, i32 6
  invoke void @_ZN6icu_7515SimpleFormatterC2Ev(ptr noundef nonnull align 8 dereferenceable(72) %fFallbackFormat)
          to label %invoke.cont3 unwind label %lpad2

invoke.cont3:                                     ; preds = %invoke.cont
  %fLocaleDisplayNames = getelementptr inbounds %"class.icu_75::TZGNCore", ptr %this1, i32 0, i32 7
  store ptr null, ptr %fLocaleDisplayNames, align 8
  %fStringPool = getelementptr inbounds %"class.icu_75::TZGNCore", ptr %this1, i32 0, i32 8
  %1 = load ptr, ptr %status.addr, align 8
  invoke void @_ZN6icu_7512ZNStringPoolC1ER10UErrorCode(ptr noundef nonnull align 8 dereferenceable(16) %fStringPool, ptr noundef nonnull align 4 dereferenceable(4) %1)
          to label %invoke.cont5 unwind label %lpad4

invoke.cont5:                                     ; preds = %invoke.cont3
  %fGNamesTrie = getelementptr inbounds %"class.icu_75::TZGNCore", ptr %this1, i32 0, i32 9
  invoke void @_ZN6icu_7511TextTrieMapC1EaPFvPvE(ptr noundef nonnull align 8 dereferenceable(56) %fGNamesTrie, i8 noundef signext 1, ptr noundef @_ZN6icu_75L15deleteGNameInfoEPv)
          to label %invoke.cont7 unwind label %lpad6

invoke.cont7:                                     ; preds = %invoke.cont5
  %fGNamesTrieFullyLoaded = getelementptr inbounds %"class.icu_75::TZGNCore", ptr %this1, i32 0, i32 10
  store i8 0, ptr %fGNamesTrieFullyLoaded, align 8
  %2 = load ptr, ptr %locale.addr, align 8
  %3 = load ptr, ptr %status.addr, align 8
  invoke void @_ZN6icu_758TZGNCore10initializeERKNS_6LocaleER10UErrorCode(ptr noundef nonnull align 8 dereferenceable(485) %this1, ptr noundef nonnull align 8 dereferenceable(217) %2, ptr noundef nonnull align 4 dereferenceable(4) %3)
          to label %invoke.cont9 unwind label %lpad8

invoke.cont9:                                     ; preds = %invoke.cont7
  ret void

lpad:                                             ; preds = %entry
  %4 = landingpad { ptr, i32 }
          cleanup
  %5 = extractvalue { ptr, i32 } %4, 0
  store ptr %5, ptr %exn.slot, align 8
  %6 = extractvalue { ptr, i32 } %4, 1
  store i32 %6, ptr %ehselector.slot, align 4
  br label %ehcleanup12

lpad2:                                            ; preds = %invoke.cont
  %7 = landingpad { ptr, i32 }
          cleanup
  %8 = extractvalue { ptr, i32 } %7, 0
  store ptr %8, ptr %exn.slot, align 8
  %9 = extractvalue { ptr, i32 } %7, 1
  store i32 %9, ptr %ehselector.slot, align 4
  br label %ehcleanup11

lpad4:                                            ; preds = %invoke.cont3
  %10 = landingpad { ptr, i32 }
          cleanup
  %11 = extractvalue { ptr, i32 } %10, 0
  store ptr %11, ptr %exn.slot, align 8
  %12 = extractvalue { ptr, i32 } %10, 1
  store i32 %12, ptr %ehselector.slot, align 4
  br label %ehcleanup10

lpad6:                                            ; preds = %invoke.cont5
  %13 = landingpad { ptr, i32 }
          cleanup
  %14 = extractvalue { ptr, i32 } %13, 0
  store ptr %14, ptr %exn.slot, align 8
  %15 = extractvalue { ptr, i32 } %13, 1
  store i32 %15, ptr %ehselector.slot, align 4
  br label %ehcleanup

lpad8:                                            ; preds = %invoke.cont7
  %16 = landingpad { ptr, i32 }
          cleanup
  %17 = extractvalue { ptr, i32 } %16, 0
  store ptr %17, ptr %exn.slot, align 8
  %18 = extractvalue { ptr, i32 } %16, 1
  store i32 %18, ptr %ehselector.slot, align 4
  call void @_ZN6icu_7511TextTrieMapD1Ev(ptr noundef nonnull align 8 dereferenceable(56) %fGNamesTrie) #9
  br label %ehcleanup

ehcleanup:                                        ; preds = %lpad8, %lpad6
  call void @_ZN6icu_7512ZNStringPoolD1Ev(ptr noundef nonnull align 8 dereferenceable(16) %fStringPool) #9
  br label %ehcleanup10

ehcleanup10:                                      ; preds = %ehcleanup, %lpad4
  call void @_ZN6icu_7515SimpleFormatterD1Ev(ptr noundef nonnull align 8 dereferenceable(72) %fFallbackFormat) #9
  br label %ehcleanup11

ehcleanup11:                                      ; preds = %ehcleanup10, %lpad2
  call void @_ZN6icu_7515SimpleFormatterD1Ev(ptr noundef nonnull align 8 dereferenceable(72) %fRegionFormat) #9
  br label %ehcleanup12

ehcleanup12:                                      ; preds = %ehcleanup11, %lpad
  call void @_ZN6icu_756LocaleD1Ev(ptr noundef nonnull align 8 dereferenceable(217) %fLocale) #9
  br label %eh.resume

eh.resume:                                        ; preds = %ehcleanup12
  %exn = load ptr, ptr %exn.slot, align 8
  %sel = load i32, ptr %ehselector.slot, align 4
  %lpad.val = insertvalue { ptr, i32 } poison, ptr %exn, 0
  %lpad.val13 = insertvalue { ptr, i32 } %lpad.val, i32 %sel, 1
  resume { ptr, i32 } %lpad.val13
}