; Function Attrs: mustprogress uwtable
define void @_ZN6icu_758TZGNCoreC2ERKNS_6LocaleER10UErrorCode(ptr noundef nonnull align 8 dereferenceable(485) %this, ptr noundef nonnull align 8 dereferenceable(217) %locale, ptr noundef nonnull align 4 dereferenceable(4) %status) unnamed_addr #1 align 2 personality ptr @__gxx_personality_v0 {
entry:
  store ptr getelementptr inbounds ({ [4 x ptr] }, ptr @_ZTVN6icu_758TZGNCoreE, i64 0, i32 0, i64 2), ptr %this, align 8
  %fLocale = getelementptr inbounds i8, ptr %this, i64 8
  tail call void @_ZN6icu_756LocaleC1ERKS0_(ptr noundef nonnull align 8 dereferenceable(217) %fLocale, ptr noundef nonnull align 8 dereferenceable(217) %locale)
  %fTimeZoneNames = getelementptr inbounds i8, ptr %this, i64 232
  %fRegionFormat = getelementptr inbounds i8, ptr %this, i64 256
  %compiledPattern.i = getelementptr inbounds i8, ptr %this, i64 264
  tail call void @llvm.memset.p0.i64(ptr noundef nonnull align 8 dereferenceable(24) %fTimeZoneNames, i8 0, i64 24, i1 false)
  invoke void @_ZN6icu_7513UnicodeStringC1EDs(ptr noundef nonnull align 8 dereferenceable(64) %compiledPattern.i, i16 noundef zeroext 0)
          to label %invoke.cont unwind label %lpad

invoke.cont:                                      ; preds = %entry
  %fFallbackFormat = getelementptr inbounds i8, ptr %this, i64 328
  %compiledPattern.i7 = getelementptr inbounds i8, ptr %this, i64 336
  invoke void @_ZN6icu_7513UnicodeStringC1EDs(ptr noundef nonnull align 8 dereferenceable(64) %compiledPattern.i7, i16 noundef zeroext 0)
          to label %invoke.cont3 unwind label %lpad2

invoke.cont3:                                     ; preds = %invoke.cont
  %fLocaleDisplayNames = getelementptr inbounds i8, ptr %this, i64 400
  store ptr null, ptr %fLocaleDisplayNames, align 8
  %fStringPool = getelementptr inbounds i8, ptr %this, i64 408
  invoke void @_ZN6icu_7512ZNStringPoolC1ER10UErrorCode(ptr noundef nonnull align 8 dereferenceable(16) %fStringPool, ptr noundef nonnull align 4 dereferenceable(4) %status)
          to label %invoke.cont5 unwind label %lpad4

invoke.cont5:                                     ; preds = %invoke.cont3
  %fGNamesTrie = getelementptr inbounds i8, ptr %this, i64 424
  invoke void @_ZN6icu_7511TextTrieMapC1EaPFvPvE(ptr noundef nonnull align 8 dereferenceable(56) %fGNamesTrie, i8 noundef signext 1, ptr noundef nonnull @_ZN6icu_75L15deleteGNameInfoEPv)
          to label %invoke.cont7 unwind label %lpad6

invoke.cont7:                                     ; preds = %invoke.cont5
  %fGNamesTrieFullyLoaded = getelementptr inbounds i8, ptr %this, i64 480
  store i8 0, ptr %fGNamesTrieFullyLoaded, align 8
  invoke void @_ZN6icu_758TZGNCore10initializeERKNS_6LocaleER10UErrorCode(ptr noundef nonnull align 8 dereferenceable(485) %this, ptr noundef nonnull align 8 dereferenceable(217) %locale, ptr noundef nonnull align 4 dereferenceable(4) %status)
          to label %invoke.cont9 unwind label %lpad8

invoke.cont9:                                     ; preds = %invoke.cont7
  ret void

lpad:                                             ; preds = %entry
  %0 = landingpad { ptr, i32 }
          cleanup
  br label %ehcleanup12

lpad2:                                            ; preds = %invoke.cont
  %1 = landingpad { ptr, i32 }
          cleanup
  br label %ehcleanup11

lpad4:                                            ; preds = %invoke.cont3
  %2 = landingpad { ptr, i32 }
          cleanup
  br label %ehcleanup10

lpad6:                                            ; preds = %invoke.cont5
  %3 = landingpad { ptr, i32 }
          cleanup
  br label %ehcleanup

lpad8:                                            ; preds = %invoke.cont7
  %4 = landingpad { ptr, i32 }
          cleanup
  tail call void @_ZN6icu_7511TextTrieMapD1Ev(ptr noundef nonnull align 8 dereferenceable(56) %fGNamesTrie) #17
  br label %ehcleanup

ehcleanup:                                        ; preds = %lpad8, %lpad6
  %.pn = phi { ptr, i32 } [ %4, %lpad8 ], [ %3, %lpad6 ]
  tail call void @_ZN6icu_7512ZNStringPoolD1Ev(ptr noundef nonnull align 8 dereferenceable(16) %fStringPool) #17
  br label %ehcleanup10

ehcleanup10:                                      ; preds = %ehcleanup, %lpad4
  %.pn.pn = phi { ptr, i32 } [ %.pn, %ehcleanup ], [ %2, %lpad4 ]
  tail call void @_ZN6icu_7515SimpleFormatterD1Ev(ptr noundef nonnull align 8 dereferenceable(72) %fFallbackFormat) #17
  br label %ehcleanup11

ehcleanup11:                                      ; preds = %ehcleanup10, %lpad2
  %.pn.pn.pn = phi { ptr, i32 } [ %.pn.pn, %ehcleanup10 ], [ %1, %lpad2 ]
  tail call void @_ZN6icu_7515SimpleFormatterD1Ev(ptr noundef nonnull align 8 dereferenceable(72) %fRegionFormat) #17
  br label %ehcleanup12

ehcleanup12:                                      ; preds = %ehcleanup11, %lpad
  %.pn.pn.pn.pn = phi { ptr, i32 } [ %.pn.pn.pn, %ehcleanup11 ], [ %0, %lpad ]
  tail call void @_ZN6icu_756LocaleD1Ev(ptr noundef nonnull align 8 dereferenceable(217) %fLocale) #17
  resume { ptr, i32 } %.pn.pn.pn.pn
}